target datalayout = "e-m:e-p270:32:32-p271:32:32-p272:64:64-i64:64-i128:128-f80:128-n8:16:32:64-S128"
target triple = "x86_64-pc-linux-gnu"

%"struct.cv::details::FPDenormalsModeState" = type { [16 x i32] }

; Function Attrs: mustprogress nounwind uwtable
define noundef zeroext i1 @_ZN2cv7details23restoreFPDenormalsStateERKNS0_20FPDenormalsModeStateE(ptr noundef nonnull align 4 dereferenceable(64) %0) #5 {
  %2 = alloca ptr, align 8
  %3 = alloca i32, align 4
  %4 = alloca i32, align 4
  %5 = alloca i32, align 4
  %6 = alloca i32, align 4
  %7 = alloca i32, align 4
  %8 = alloca i32, align 4
  store ptr %0, ptr %2, align 8, !tbaa !190
  call void @llvm.lifetime.start.p0(i64 4, ptr %3) #3
  %9 = load ptr, ptr %2, align 8, !tbaa !190
  %10 = getelementptr inbounds nuw %"struct.cv::details::FPDenormalsModeState", ptr %9, i32 0, i32 0
  %11 = getelementptr inbounds [16 x i32], ptr %10, i64 0, i64 0
  %12 = load i32, ptr %11, align 4, !tbaa !29
  store i32 %12, ptr %3, align 4, !tbaa !29
  call void @llvm.lifetime.start.p0(i64 4, ptr %4) #3
  %13 = load ptr, ptr %2, align 8, !tbaa !190
  %14 = getelementptr inbounds nuw %"struct.cv::details::FPDenormalsModeState", ptr %13, i32 0, i32 0
  %15 = getelementptr inbounds [16 x i32], ptr %14, i64 0, i64 1
  %16 = load i32, ptr %15, align 4, !tbaa !29
  store i32 %16, ptr %4, align 4, !tbaa !29
  br label %17

17:                                               ; preds = %1
  br label %18

18:                                               ; preds = %17
  br label %19

19:                                               ; preds = %18
  call void @llvm.lifetime.start.p0(i64 4, ptr %5) #3
  call void @llvm.x86.sse.stmxcsr(ptr %6)
  %20 = load i32, ptr %6, align 4
  store i32 %20, ptr %5, align 4, !tbaa !29
  call void @llvm.lifetime.start.p0(i64 4, ptr %7) #3
  %21 = load i32, ptr %5, align 4, !tbaa !29
  %22 = load i32, ptr %3, align 4, !tbaa !29
  %23 = xor i32 %22, -1
  %24 = and i32 %21, %23
  %25 = load i32, ptr %4, align 4, !tbaa !29
  %26 = or i32 %24, %25
  store i32 %26, ptr %7, align 4, !tbaa !29
  %27 = load i32, ptr %7, align 4, !tbaa !29
  store i32 %27, ptr %8, align 4
  call void @llvm.x86.sse.ldmxcsr(ptr %8)
  call void @llvm.lifetime.end.p0(i64 4, ptr %7) #3
  call void @llvm.lifetime.end.p0(i64 4, ptr %5) #3
  call void @llvm.lifetime.end.p0(i64 4, ptr %4) #3
  call void @llvm.lifetime.end.p0(i64 4, ptr %3) #3
  ret i1 true
}