; Function Attrs: mustprogress nounwind uwtable
define noundef zeroext i1 @_ZN2cv7details23restoreFPDenormalsStateERKNS0_20FPDenormalsModeStateE(ptr noundef nonnull readonly align 4 captures(none) dereferenceable(64) %0) local_unnamed_addr #9 {
  %2 = alloca i32, align 4
  %3 = alloca i32, align 4
  %4 = load i32, ptr %0, align 4, !tbaa !83
  %5 = getelementptr inbounds nuw i8, ptr %0, i64 4
  %6 = load i32, ptr %5, align 4, !tbaa !83
  call void @llvm.x86.sse.stmxcsr(ptr nonnull %2)
  %7 = load i32, ptr %2, align 4
  %8 = xor i32 %4, -1
  %9 = and i32 %7, %8
  %10 = or i32 %9, %6
  store i32 %10, ptr %3, align 4
  call void @llvm.x86.sse.ldmxcsr(ptr nonnull %3)
  ret i1 true
}